target datalayout = "e-m:e-p270:32:32-p271:32:32-p272:64:64-i64:64-i128:128-f80:128-n8:16:32:64-S128"
target triple = "x86_64-pc-linux-gnu"

%struct.translation_ctx_st = type { ptr, i32, i32, ptr, i32, i32, ptr, i64, ptr, ptr, [50 x i8], ptr, ptr, i64 }

@.str = private unnamed_addr constant [46 x i8] c"../openssl/crypto/evp/ctrl_params_translate.c\00", align 1
@__func__.fix_dh_paramgen_type = private unnamed_addr constant [21 x i8] c"fix_dh_paramgen_type\00", align 1

; Function Attrs: inlinehint nounwind willreturn memory(read) uwtable
define available_externally i32 @atoi(ptr noundef nonnull %0) #8 {
  %2 = alloca ptr, align 8
  store ptr %0, ptr %2, align 8, !tbaa !50
  %3 = load ptr, ptr %2, align 8, !tbaa !50
  %4 = call i64 @strtol(ptr noundef %3, ptr noundef null, i32 noundef 10) #9
  %5 = trunc i64 %4 to i32
  ret i32 %5
}

; Function Attrs: nounwind uwtable
define internal i32 @fix_dh_paramgen_type(i32 noundef %0, ptr noundef %1, ptr noundef %2) #0 {
  %4 = alloca i32, align 4
  %5 = alloca i32, align 4
  %6 = alloca ptr, align 8
  %7 = alloca ptr, align 8
  %8 = alloca i32, align 4
  %9 = alloca i32, align 4
  store i32 %0, ptr %5, align 4, !tbaa !8
  store ptr %1, ptr %6, align 8, !tbaa !11
  store ptr %2, ptr %7, align 8, !tbaa !43
  call void @llvm.lifetime.start.p0(i64 4, ptr %8) #9
  %10 = load i32, ptr %5, align 4, !tbaa !8
  %11 = load ptr, ptr %6, align 8, !tbaa !11
  %12 = load ptr, ptr %7, align 8, !tbaa !43
  %13 = call i32 @default_check(i32 noundef %10, ptr noundef %11, ptr noundef %12)
  store i32 %13, ptr %8, align 4, !tbaa !8
  %14 = icmp sle i32 %13, 0
  br i1 %14, label %15, label %17

15:                                               ; preds = %3
  %16 = load i32, ptr %8, align 4, !tbaa !8
  store i32 %16, ptr %4, align 4
  store i32 1, ptr %9, align 4
  br label %49

17:                                               ; preds = %3
  %18 = load ptr, ptr %7, align 8, !tbaa !43
  %19 = getelementptr inbounds nuw %struct.translation_ctx_st, ptr %18, i32 0, i32 1
  %20 = load i32, ptr %19, align 8, !tbaa !35
  %21 = icmp ne i32 %20, 2
  br i1 %21, label %22, label %23

22:                                               ; preds = %17
  store i32 0, ptr %4, align 4
  store i32 1, ptr %9, align 4
  br label %49

23:                                               ; preds = %17
  %24 = load i32, ptr %5, align 4, !tbaa !8
  %25 = icmp eq i32 %24, 4
  br i1 %25, label %26, label %44

26:                                               ; preds = %23
  %27 = load ptr, ptr %7, align 8, !tbaa !43
  %28 = getelementptr inbounds nuw %struct.translation_ctx_st, ptr %27, i32 0, i32 6
  %29 = load ptr, ptr %28, align 8, !tbaa !40
  %30 = call i32 @atoi(ptr noundef %29) #10
  %31 = call ptr @ossl_dh_gen_type_id2name(i32 noundef %30)
  %32 = load ptr, ptr %7, align 8, !tbaa !43
  %33 = getelementptr inbounds nuw %struct.translation_ctx_st, ptr %32, i32 0, i32 6
  store ptr %31, ptr %33, align 8, !tbaa !40
  %34 = icmp eq ptr %31, null
  br i1 %34, label %35, label %36

35:                                               ; preds = %26
  call void @ERR_new()
  call void @ERR_set_debug(ptr noundef @.str, i32 noundef 1078, ptr noundef @__func__.fix_dh_paramgen_type)
  call void (i32, i32, ptr, ...) @ERR_set_error(i32 noundef 6, i32 noundef 222, ptr noundef null)
  store i32 0, ptr %4, align 4
  store i32 1, ptr %9, align 4
  br label %49

36:                                               ; preds = %26
  %37 = load ptr, ptr %7, align 8, !tbaa !43
  %38 = getelementptr inbounds nuw %struct.translation_ctx_st, ptr %37, i32 0, i32 6
  %39 = load ptr, ptr %38, align 8, !tbaa !40
  %40 = call i64 @strlen(ptr noundef %39) #10
  %41 = trunc i64 %40 to i32
  %42 = load ptr, ptr %7, align 8, !tbaa !43
  %43 = getelementptr inbounds nuw %struct.translation_ctx_st, ptr %42, i32 0, i32 5
  store i32 %41, ptr %43, align 4, !tbaa !39
  br label %44

44:                                               ; preds = %36, %23
  %45 = load i32, ptr %5, align 4, !tbaa !8
  %46 = load ptr, ptr %6, align 8, !tbaa !11
  %47 = load ptr, ptr %7, align 8, !tbaa !43
  %48 = call i32 @default_fixup_args(i32 noundef %45, ptr noundef %46, ptr noundef %47)
  store i32 %48, ptr %4, align 4
  store i32 1, ptr %9, align 4
  br label %49

49:                                               ; preds = %44, %35, %22, %15
  call void @llvm.lifetime.end.p0(i64 4, ptr %8) #9
  %50 = load i32, ptr %4, align 4
  ret i32 %50
}