; Function Attrs: nounwind uwtable
define internal i32 @fix_dh_paramgen_type(i32 noundef %0, ptr noundef captures(address_is_null) %1, ptr noundef %2) #0 {
  %4 = tail call fastcc i32 @default_check(i32 noundef %0, ptr noundef %1)
  %5 = icmp slt i32 %4, 1
  br i1 %5, label %24, label %6

6:                                                ; preds = %3
  %7 = getelementptr inbounds nuw i8, ptr %2, i64 8
  %8 = load i32, ptr %7, align 8, !tbaa !29
  %.not = icmp eq i32 %8, 2
  br i1 %.not, label %9, label %24

9:                                                ; preds = %6
  %10 = icmp eq i32 %0, 4
  br i1 %10, label %12, label %.split

.split:                                           ; preds = %9
  %11 = tail call i32 @default_fixup_args(i32 noundef %0, ptr noundef %1, ptr noundef nonnull %2)
  br label %24

12:                                               ; preds = %9
  %13 = getelementptr inbounds nuw i8, ptr %2, i64 32
  %14 = load ptr, ptr %13, align 8, !tbaa !35
  %15 = tail call i64 @strtol(ptr noundef nonnull captures(none) %14, ptr noundef null, i32 noundef 10) #8
  %16 = trunc i64 %15 to i32
  %17 = tail call ptr @ossl_dh_gen_type_id2name(i32 noundef %16) #8
  store ptr %17, ptr %13, align 8, !tbaa !35
  %18 = icmp eq ptr %17, null
  br i1 %18, label %19, label %.split14

19:                                               ; preds = %12
  tail call void @ERR_new() #8
  tail call void @ERR_set_debug(ptr noundef nonnull @.str, i32 noundef 1078, ptr noundef nonnull @__func__.fix_dh_paramgen_type) #8
  tail call void (i32, i32, ptr, ...) @ERR_set_error(i32 noundef 6, i32 noundef 222, ptr noundef null) #8
  br label %24

.split14:                                         ; preds = %12
  %20 = tail call i64 @strlen(ptr noundef nonnull dereferenceable(1) %17) #9
  %21 = trunc i64 %20 to i32
  %22 = getelementptr inbounds nuw i8, ptr %2, i64 28
  store i32 %21, ptr %22, align 4, !tbaa !34
  %23 = tail call i32 @default_fixup_args(i32 noundef 4, ptr noundef %1, ptr noundef nonnull %2)
  br label %24

24:                                               ; preds = %.split14, %.split, %6, %3, %19
  %.0 = phi i32 [ 0, %19 ], [ %4, %3 ], [ 0, %6 ], [ %11, %.split ], [ %23, %.split14 ]
  ret i32 %.0
}